target datalayout = "e-m:e-p270:32:32-p271:32:32-p272:64:64-i64:64-i128:128-f80:128-n8:16:32:64-S128"
target triple = "x86_64-pc-linux-gnu"

%struct._zval_struct = type { %union._zend_value, %union.anon, %union.anon.2 }
%union._zend_value = type { i64 }
%union.anon = type { i32 }
%union.anon.2 = type { i32 }
%struct._zend_refcounted_h = type { i32, %union.anon.3 }
%union.anon.3 = type { i32 }
%struct._php_random_algo_with_state = type { ptr, ptr }
%struct._zend_object = type { %struct._zend_refcounted_h, i32, ptr, ptr, ptr, [1 x %struct._zval_struct] }
%struct._php_random_randomizer = type { %struct._php_random_algo_with_state, i8, %struct._zend_object }

; Function Attrs: nounwind uwtable
define void @php_random_status_free(ptr noundef %0, i1 noundef zeroext %1) #0 {
  %3 = alloca ptr, align 8
  %4 = alloca i8, align 1
  store ptr %0, ptr %3, align 8
  %5 = zext i1 %1 to i8
  store i8 %5, ptr %4, align 1
  %6 = load i8, ptr %4, align 1
  %7 = trunc i8 %6 to i1
  br i1 %7, label %8, label %10

8:                                                ; preds = %2
  %9 = load ptr, ptr %3, align 8
  call void @free(ptr noundef %9) #10
  br label %12

10:                                               ; preds = %2
  %11 = load ptr, ptr %3, align 8
  call void @_efree(ptr noundef %11)
  br label %12

12:                                               ; preds = %10, %8
  ret void
}

; Function Attrs: nounwind uwtable
define internal ptr @php_random_randomizer_from_obj(ptr noundef %0) #0 {
  %2 = alloca ptr, align 8
  store ptr %0, ptr %2, align 8
  %3 = load ptr, ptr %2, align 8
  %4 = getelementptr inbounds i8, ptr %3, i64 -24
  ret ptr %4
}

; Function Attrs: nounwind uwtable
define internal void @randomizer_free_obj(ptr noundef %0) #0 {
  %2 = alloca ptr, align 8
  %3 = alloca ptr, align 8
  store ptr %0, ptr %2, align 8
  %4 = load ptr, ptr %2, align 8
  %5 = call ptr @php_random_randomizer_from_obj(ptr noundef %4)
  store ptr %5, ptr %3, align 8
  %6 = load ptr, ptr %3, align 8
  %7 = getelementptr inbounds %struct._php_random_randomizer, ptr %6, i32 0, i32 1
  %8 = load i8, ptr %7, align 8
  %9 = trunc i8 %8 to i1
  br i1 %9, label %10, label %15

10:                                               ; preds = %1
  %11 = load ptr, ptr %3, align 8
  %12 = getelementptr inbounds %struct._php_random_randomizer, ptr %11, i32 0, i32 0
  %13 = getelementptr inbounds %struct._php_random_algo_with_state, ptr %12, i32 0, i32 1
  %14 = load ptr, ptr %13, align 8
  call void @php_random_status_free(ptr noundef %14, i1 noundef zeroext false)
  br label %15

15:                                               ; preds = %10, %1
  %16 = load ptr, ptr %3, align 8
  %17 = getelementptr inbounds %struct._php_random_randomizer, ptr %16, i32 0, i32 2
  call void @zend_object_std_dtor(ptr noundef %17)
  ret void
}