; Function Attrs: nounwind uwtable
define internal void @randomizer_free_obj(ptr noundef %0) #0 {
  %2 = getelementptr inbounds i8, ptr %0, i64 -8
  %3 = load i8, ptr %2, align 8
  %4 = and i8 %3, 1
  %.not = icmp eq i8 %4, 0
  br i1 %.not, label %8, label %5

5:                                                ; preds = %1
  %6 = getelementptr inbounds i8, ptr %0, i64 -16
  %7 = load ptr, ptr %6, align 8
  tail call void @_efree(ptr noundef %7) #13
  br label %8

8:                                                ; preds = %5, %1
  tail call void @zend_object_std_dtor(ptr noundef nonnull %0) #13
  ret void
}